; Function Attrs: mustprogress uwtable
define hidden void @_ZN4cvc58internal6theory11quantifiers18SygusTemplateInferC2ERNS0_3EnvE(ptr noundef nonnull align 8 dereferenceable(536) %this, ptr noundef nonnull align 8 dereferenceable(576) %env) unnamed_addr #3 align 2 personality ptr @__gxx_personality_v0 {
entry:
  tail call void @_ZN4cvc58internal6EnvObjC2ERNS0_3EnvE(ptr noundef nonnull align 8 dereferenceable(16) %this, ptr noundef nonnull align 8 dereferenceable(576) %env)
  store ptr getelementptr inbounds ({ [4 x ptr] }, ptr @_ZTVN4cvc58internal6theory11quantifiers18SygusTemplateInferE, i64 0, i32 0, i64 2), ptr %this, align 8
  %d_quant = getelementptr inbounds i8, ptr %this, i64 16
  %0 = load atomic i8, ptr @_ZGVZN4cvc58internal4expr9NodeValue4nullEvE6s_null acquire, align 8
  %guard.uninitialized.i.i = icmp eq i8 %0, 0
  br i1 %guard.uninitialized.i.i, label %init.check.i.i, label %invoke.cont, !prof !4

init.check.i.i:                                   ; preds = %entry
  %1 = tail call i32 @__cxa_guard_acquire(ptr nonnull @_ZGVZN4cvc58internal4expr9NodeValue4nullEvE6s_null) #14
  %tobool.not.i.i = icmp eq i32 %1, 0
  br i1 %tobool.not.i.i, label %invoke.cont, label %init.i.i

init.i.i:                                         ; preds = %init.check.i.i
  %call.i.i = invoke noalias noundef nonnull dereferenceable(16) ptr @_Znwm(i64 noundef 16) #15
          to label %invoke.cont.i.i unwind label %lpad.i.i

invoke.cont.i.i:                                  ; preds = %init.i.i
  store i64 1152920405095219200, ptr %call.i.i, align 8
  %d_kind.i.i.i = getelementptr inbounds i8, ptr %call.i.i, i64 8
  store i16 0, ptr %d_kind.i.i.i, align 8
  %d_nchildren.i.i.i = getelementptr inbounds i8, ptr %call.i.i, i64 12
  store i32 0, ptr %d_nchildren.i.i.i, align 4
  store ptr %call.i.i, ptr @_ZZN4cvc58internal4expr9NodeValue4nullEvE6s_null, align 8
  tail call void @__cxa_guard_release(ptr nonnull @_ZGVZN4cvc58internal4expr9NodeValue4nullEvE6s_null) #14
  br label %invoke.cont

lpad.i.i:                                         ; preds = %init.i.i
  %2 = landingpad { ptr, i32 }
          cleanup
  tail call void @__cxa_guard_abort(ptr nonnull @_ZGVZN4cvc58internal4expr9NodeValue4nullEvE6s_null) #14
  br label %ehcleanup

invoke.cont:                                      ; preds = %invoke.cont.i.i, %init.check.i.i, %entry
  %3 = load ptr, ptr @_ZZN4cvc58internal4expr9NodeValue4nullEvE6s_null, align 8
  store ptr %3, ptr %d_quant, align 8
  %4 = getelementptr inbounds i8, ptr %this, i64 32
  store i32 0, ptr %4, align 8
  %_M_parent.i.i.i.i.i = getelementptr inbounds i8, ptr %this, i64 40
  store ptr null, ptr %_M_parent.i.i.i.i.i, align 8
  %_M_left.i.i.i.i.i = getelementptr inbounds i8, ptr %this, i64 48
  store ptr %4, ptr %_M_left.i.i.i.i.i, align 8
  %_M_right.i.i.i.i.i = getelementptr inbounds i8, ptr %this, i64 56
  store ptr %4, ptr %_M_right.i.i.i.i.i, align 8
  %_M_node_count.i.i.i.i.i = getelementptr inbounds i8, ptr %this, i64 64
  store i64 0, ptr %_M_node_count.i.i.i.i.i, align 8
  %5 = getelementptr inbounds i8, ptr %this, i64 80
  store i32 0, ptr %5, align 8
  %_M_parent.i.i.i.i.i3 = getelementptr inbounds i8, ptr %this, i64 88
  store ptr null, ptr %_M_parent.i.i.i.i.i3, align 8
  %_M_left.i.i.i.i.i4 = getelementptr inbounds i8, ptr %this, i64 96
  store ptr %5, ptr %_M_left.i.i.i.i.i4, align 8
  %_M_right.i.i.i.i.i5 = getelementptr inbounds i8, ptr %this, i64 104
  store ptr %5, ptr %_M_right.i.i.i.i.i5, align 8
  %_M_node_count.i.i.i.i.i6 = getelementptr inbounds i8, ptr %this, i64 112
  store i64 0, ptr %_M_node_count.i.i.i.i.i6, align 8
  %6 = getelementptr inbounds i8, ptr %this, i64 128
  store i32 0, ptr %6, align 8
  %_M_parent.i.i.i.i.i7 = getelementptr inbounds i8, ptr %this, i64 136
  store ptr null, ptr %_M_parent.i.i.i.i.i7, align 8
  %_M_left.i.i.i.i.i8 = getelementptr inbounds i8, ptr %this, i64 144
  store ptr %6, ptr %_M_left.i.i.i.i.i8, align 8
  %_M_right.i.i.i.i.i9 = getelementptr inbounds i8, ptr %this, i64 152
  store ptr %6, ptr %_M_right.i.i.i.i.i9, align 8
  %_M_node_count.i.i.i.i.i10 = getelementptr inbounds i8, ptr %this, i64 160
  store i64 0, ptr %_M_node_count.i.i.i.i.i10, align 8
  %7 = getelementptr inbounds i8, ptr %this, i64 176
  store i32 0, ptr %7, align 8
  %_M_parent.i.i.i.i.i11 = getelementptr inbounds i8, ptr %this, i64 184
  store ptr null, ptr %_M_parent.i.i.i.i.i11, align 8
  %_M_left.i.i.i.i.i12 = getelementptr inbounds i8, ptr %this, i64 192
  store ptr %7, ptr %_M_left.i.i.i.i.i12, align 8
  %_M_right.i.i.i.i.i13 = getelementptr inbounds i8, ptr %this, i64 200
  store ptr %7, ptr %_M_right.i.i.i.i.i13, align 8
  %_M_node_count.i.i.i.i.i14 = getelementptr inbounds i8, ptr %this, i64 208
  store i64 0, ptr %_M_node_count.i.i.i.i.i14, align 8
  %d_ti = getelementptr inbounds i8, ptr %this, i64 216
  invoke void @_ZN4cvc58internal6theory11quantifiers19TransitionInferenceC2ERNS0_3EnvE(ptr noundef nonnull align 8 dereferenceable(320) %d_ti, ptr noundef nonnull align 8 dereferenceable(576) %env)
          to label %invoke.cont3 unwind label %lpad2

invoke.cont3:                                     ; preds = %invoke.cont
  ret void

lpad2:                                            ; preds = %invoke.cont
  %8 = landingpad { ptr, i32 }
          cleanup
  %d_templ_arg = getelementptr inbounds i8, ptr %this, i64 168
  %d_templ = getelementptr inbounds i8, ptr %this, i64 120
  %d_trans_post = getelementptr inbounds i8, ptr %this, i64 72
  %d_trans_pre = getelementptr inbounds i8, ptr %this, i64 24
  tail call void @_ZNSt3mapIN4cvc58internal12NodeTemplateILb1EEES3_St4lessIS3_ESaISt4pairIKS3_S3_EEED2Ev(ptr noundef nonnull align 8 dereferenceable(48) %d_templ_arg) #14
  tail call void @_ZNSt3mapIN4cvc58internal12NodeTemplateILb1EEES3_St4lessIS3_ESaISt4pairIKS3_S3_EEED2Ev(ptr noundef nonnull align 8 dereferenceable(48) %d_templ) #14
  tail call void @_ZNSt3mapIN4cvc58internal12NodeTemplateILb1EEES3_St4lessIS3_ESaISt4pairIKS3_S3_EEED2Ev(ptr noundef nonnull align 8 dereferenceable(48) %d_trans_post) #14
  tail call void @_ZNSt3mapIN4cvc58internal12NodeTemplateILb1EEES3_St4lessIS3_ESaISt4pairIKS3_S3_EEED2Ev(ptr noundef nonnull align 8 dereferenceable(48) %d_trans_pre) #14
  tail call void @_ZN4cvc58internal12NodeTemplateILb1EED2Ev(ptr noundef nonnull align 8 dereferenceable(8) %d_quant) #14
  br label %ehcleanup

ehcleanup:                                        ; preds = %lpad.i.i, %lpad2
  %.pn = phi { ptr, i32 } [ %8, %lpad2 ], [ %2, %lpad.i.i ]
  resume { ptr, i32 } %.pn
}